; Function Attrs: nounwind uwtable
define internal range(i32 0, 28) i32 @rtsp_setup_connection(ptr noundef writeonly captures(none) initializes((440, 448)) %0, ptr noundef %1) #0 {
  %3 = load ptr, ptr @Curl_ccalloc, align 8, !tbaa !3
  %4 = tail call ptr %3(i64 noundef 1, i64 noundef 16) #7
  %5 = getelementptr inbounds nuw i8, ptr %0, i64 440
  store ptr %4, ptr %5, align 8, !tbaa !7
  %.not = icmp eq ptr %4, null
  br i1 %.not, label %8, label %6

6:                                                ; preds = %2
  %7 = getelementptr inbounds nuw i8, ptr %1, i64 1088
  tail call void @Curl_dyn_init(ptr noundef nonnull %7, i64 noundef 1000000) #7
  br label %8

8:                                                ; preds = %2, %6
  %.0 = phi i32 [ 0, %6 ], [ 27, %2 ]
  ret i32 %.0
}